target datalayout = "e-m:e-p270:32:32-p271:32:32-p272:64:64-i64:64-i128:128-f80:128-n8:16:32:64-S128"
target triple = "x86_64-pc-linux-gnu"

@_ZL14invariantChars = internal constant [4 x i32] [i32 -1025, i32 -27, i32 -2013265922, i32 -2013265922], align 16

; Function Attrs: mustprogress nounwind uwtable
define signext i8 @uprv_isInvariantString_77(ptr noundef %0, i32 noundef %1) #0 {
  %3 = alloca i8, align 1
  %4 = alloca ptr, align 8
  %5 = alloca i32, align 4
  %6 = alloca i8, align 1
  %7 = alloca i32, align 4
  store ptr %0, ptr %4, align 8, !tbaa !3
  store i32 %1, ptr %5, align 4, !tbaa !10
  call void @llvm.lifetime.start.p0(i64 1, ptr %6) #7
  br label %8

8:                                                ; preds = %53, %33, %2
  %9 = load i32, ptr %5, align 4, !tbaa !10
  %10 = icmp slt i32 %9, 0
  br i1 %10, label %11, label %20

11:                                               ; preds = %8
  %12 = load ptr, ptr %4, align 8, !tbaa !3
  %13 = getelementptr inbounds nuw i8, ptr %12, i32 1
  store ptr %13, ptr %4, align 8, !tbaa !3
  %14 = load i8, ptr %12, align 1, !tbaa !12
  store i8 %14, ptr %6, align 1, !tbaa !12
  %15 = load i8, ptr %6, align 1, !tbaa !12
  %16 = zext i8 %15 to i32
  %17 = icmp eq i32 %16, 0
  br i1 %17, label %18, label %19

18:                                               ; preds = %11
  br label %54

19:                                               ; preds = %11
  br label %35

20:                                               ; preds = %8
  %21 = load i32, ptr %5, align 4, !tbaa !10
  %22 = icmp eq i32 %21, 0
  br i1 %22, label %23, label %24

23:                                               ; preds = %20
  br label %54

24:                                               ; preds = %20
  %25 = load i32, ptr %5, align 4, !tbaa !10
  %26 = add nsw i32 %25, -1
  store i32 %26, ptr %5, align 4, !tbaa !10
  %27 = load ptr, ptr %4, align 8, !tbaa !3
  %28 = getelementptr inbounds nuw i8, ptr %27, i32 1
  store ptr %28, ptr %4, align 8, !tbaa !3
  %29 = load i8, ptr %27, align 1, !tbaa !12
  store i8 %29, ptr %6, align 1, !tbaa !12
  %30 = load i8, ptr %6, align 1, !tbaa !12
  %31 = zext i8 %30 to i32
  %32 = icmp eq i32 %31, 0
  br i1 %32, label %33, label %34

33:                                               ; preds = %24
  br label %8, !llvm.loop !18

34:                                               ; preds = %24
  br label %35

35:                                               ; preds = %34, %19
  %36 = load i8, ptr %6, align 1, !tbaa !12
  %37 = zext i8 %36 to i32
  %38 = icmp sle i32 %37, 127
  br i1 %38, label %39, label %52

39:                                               ; preds = %35
  %40 = load i8, ptr %6, align 1, !tbaa !12
  %41 = zext i8 %40 to i32
  %42 = ashr i32 %41, 5
  %43 = sext i32 %42 to i64
  %44 = getelementptr inbounds [4 x i32], ptr @_ZL14invariantChars, i64 0, i64 %43
  %45 = load i32, ptr %44, align 4, !tbaa !10
  %46 = load i8, ptr %6, align 1, !tbaa !12
  %47 = zext i8 %46 to i32
  %48 = and i32 %47, 31
  %49 = shl i32 1, %48
  %50 = and i32 %45, %49
  %51 = icmp ne i32 %50, 0
  br i1 %51, label %53, label %52

52:                                               ; preds = %39, %35
  store i8 0, ptr %3, align 1
  store i32 1, ptr %7, align 4
  br label %55

53:                                               ; preds = %39
  br label %8, !llvm.loop !18

54:                                               ; preds = %23, %18
  store i8 1, ptr %3, align 1
  store i32 1, ptr %7, align 4
  br label %55

55:                                               ; preds = %54, %52
  call void @llvm.lifetime.end.p0(i64 1, ptr %6) #7
  %56 = load i8, ptr %3, align 1
  ret i8 %56
}