; Function Attrs: mustprogress nofree norecurse nosync nounwind willreturn memory(argmem: read) uwtable
define signext range(i8 0, 2) i8 @uprv_isInvariantString_77(ptr noundef readonly captures(none) %0, i32 noundef %1) local_unnamed_addr #1 {
  br label %.backedge

.backedge:                                        ; preds = %.backedge.backedge, %2
  %.011 = phi ptr [ %0, %2 ], [ %.011.be, %.backedge.backedge ]
  %.010 = phi i32 [ %1, %2 ], [ %.010.be, %.backedge.backedge ]
  %3 = icmp slt i32 %.010, 0
  br i1 %3, label %4, label %8

4:                                                ; preds = %.backedge
  %5 = getelementptr inbounds nuw i8, ptr %.011, i64 1
  %6 = load i8, ptr %.011, align 1, !tbaa !3
  %7 = icmp eq i8 %6, 0
  br i1 %7, label %26, label %15

8:                                                ; preds = %.backedge
  %9 = icmp eq i32 %.010, 0
  br i1 %9, label %26, label %10

10:                                               ; preds = %8
  %11 = add nsw i32 %.010, -1
  %12 = getelementptr inbounds nuw i8, ptr %.011, i64 1
  %13 = load i8, ptr %.011, align 1, !tbaa !3
  %14 = icmp eq i8 %13, 0
  br i1 %14, label %.backedge.backedge, label %15

.backedge.backedge:                               ; preds = %10, %17
  %.011.be = phi ptr [ %.112, %17 ], [ %12, %10 ]
  %.010.be = phi i32 [ %.1, %17 ], [ %11, %10 ]
  br label %.backedge, !llvm.loop !13

15:                                               ; preds = %10, %4
  %.112 = phi ptr [ %5, %4 ], [ %12, %10 ]
  %.1 = phi i32 [ %.010, %4 ], [ %11, %10 ]
  %.0 = phi i8 [ %6, %4 ], [ %13, %10 ]
  %16 = icmp sgt i8 %.0, -1
  br i1 %16, label %17, label %26

17:                                               ; preds = %15
  %18 = zext nneg i8 %.0 to i32
  %19 = lshr i32 %18, 5
  %20 = zext nneg i32 %19 to i64
  %21 = getelementptr inbounds nuw [4 x i32], ptr @_ZL14invariantChars, i64 0, i64 %20
  %22 = load i32, ptr %21, align 4, !tbaa !10
  %23 = and i32 %18, 31
  %24 = shl nuw i32 1, %23
  %25 = and i32 %22, %24
  %.not = icmp eq i32 %25, 0
  br i1 %.not, label %26, label %.backedge.backedge

26:                                               ; preds = %4, %8, %15, %17
  %.013 = phi i8 [ 0, %17 ], [ 0, %15 ], [ 1, %8 ], [ 1, %4 ]
  ret i8 %.013
}